target datalayout = "e-m:e-p270:32:32-p271:32:32-p272:64:64-i64:64-i128:128-f80:128-n8:16:32:64-S128"
target triple = "x86_64-pc-linux-gnu"

%struct.EncoderSession = type { i32, i32, i32, i32, ptr, ptr, ptr, i32, i32, i32, i64, i64, i64, i64, i32, i64, [16 x i8], %struct.SampleInfo, i32, %union.anon.4, ptr, ptr, ptr, double, double }
%struct.SampleInfo = type { i32, i32, i32, i32, i32, i32, i32, i32 }
%union.anon.4 = type { %struct.anon.6 }
%struct.anon.6 = type { ptr, %struct.FLACDecoderData }
%struct.FLACDecoderData = type { i64, ptr, i32, i64, [1024 x ptr], i64, i32 }
%struct.FLAC__StreamMetadata = type { i32, i32, i32, %union.anon.7 }
%union.anon.7 = type { %struct.FLAC__StreamMetadata_CueSheet }
%struct.FLAC__StreamMetadata_CueSheet = type { [129 x i8], i64, i32, i32, ptr }
%struct.FLAC__StreamMetadata_StreamInfo = type { i32, i32, i32, i32, i32, i32, i32, i64, [16 x i8] }

@stderr = external global ptr, align 8
@.str.14 = private unnamed_addr constant [22 x i8] c"ERROR during encoding\00", align 1
@.str.89 = private unnamed_addr constant [2 x i8] c"\0A\00", align 1
@.str.90 = private unnamed_addr constant [49 x i8] c"%s: ERROR: could not read back MD5sum of output\0A\00", align 1
@.str.91 = private unnamed_addr constant [63 x i8] c"%s: ERROR: MD5sum of input is different from MD5sum of output\0A\00", align 1
@.str.92 = private unnamed_addr constant [50 x i8] c"%s: ERROR:  MD5sum of input FLAC file mismatched\0A\00", align 1
@.str.93 = private unnamed_addr constant [55 x i8] c"%s: ERROR: updating foreign metadata in FLAC file: %s\0A\00", align 1

; Function Attrs: nounwind sspstrong uwtable
define internal i32 @EncoderSession_finish_ok(ptr noundef %0, ptr noundef %1, i32 noundef %2) #0 {
  %4 = alloca ptr, align 8
  %5 = alloca ptr, align 8
  %6 = alloca i32, align 4
  %7 = alloca i32, align 4
  %8 = alloca i32, align 4
  %9 = alloca [16 x i8], align 16
  %10 = alloca i32, align 4
  %11 = alloca %struct.FLAC__StreamMetadata, align 8
  %12 = alloca ptr, align 8
  store ptr %0, ptr %4, align 8, !tbaa !48
  store ptr %1, ptr %5, align 8, !tbaa !48
  store i32 %2, ptr %6, align 4, !tbaa !13
  call void @llvm.lifetime.start.p0(i64 4, ptr %7) #14
  store i32 0, ptr %7, align 4, !tbaa !13
  call void @llvm.lifetime.start.p0(i64 4, ptr %8) #14
  store i32 0, ptr %8, align 4, !tbaa !13
  call void @llvm.lifetime.start.p0(i64 16, ptr %9) #14
  call void @llvm.memset.p0.i64(ptr align 16 %9, i8 0, i64 16, i1 false)
  call void @llvm.lifetime.start.p0(i64 4, ptr %10) #14
  store i32 0, ptr %10, align 4, !tbaa !13
  %13 = load ptr, ptr %4, align 8, !tbaa !48
  %14 = getelementptr inbounds nuw %struct.EncoderSession, ptr %13, i32 0, i32 20
  %15 = load ptr, ptr %14, align 8, !tbaa !66
  %16 = icmp ne ptr %15, null
  br i1 %16, label %17, label %39

17:                                               ; preds = %3
  %18 = load ptr, ptr %4, align 8, !tbaa !48
  %19 = getelementptr inbounds nuw %struct.EncoderSession, ptr %18, i32 0, i32 20
  %20 = load ptr, ptr %19, align 8, !tbaa !66
  %21 = call i32 @FLAC__stream_encoder_get_state(ptr noundef %20)
  store i32 %21, ptr %7, align 4, !tbaa !13
  %22 = load ptr, ptr %4, align 8, !tbaa !48
  %23 = getelementptr inbounds nuw %struct.EncoderSession, ptr %22, i32 0, i32 20
  %24 = load ptr, ptr %23, align 8, !tbaa !66
  %25 = call i32 @FLAC__stream_encoder_finish(ptr noundef %24)
  %26 = icmp ne i32 %25, 0
  %27 = select i1 %26, i32 0, i32 1
  store i32 %27, ptr %8, align 4, !tbaa !13
  %28 = load i32, ptr %7, align 4, !tbaa !13
  %29 = icmp eq i32 %28, 4
  br i1 %29, label %36, label %30

30:                                               ; preds = %17
  %31 = load ptr, ptr %4, align 8, !tbaa !48
  %32 = getelementptr inbounds nuw %struct.EncoderSession, ptr %31, i32 0, i32 20
  %33 = load ptr, ptr %32, align 8, !tbaa !66
  %34 = call i32 @FLAC__stream_encoder_get_state(ptr noundef %33)
  %35 = icmp eq i32 %34, 4
  br label %36

36:                                               ; preds = %30, %17
  %37 = phi i1 [ true, %17 ], [ %35, %30 ]
  %38 = zext i1 %37 to i32
  store i32 %38, ptr %10, align 4, !tbaa !13
  br label %39

39:                                               ; preds = %36, %3
  %40 = load i32, ptr %8, align 4, !tbaa !13
  %41 = icmp ne i32 %40, 0
  br i1 %41, label %42, label %47

42:                                               ; preds = %39
  %43 = load i32, ptr %10, align 4, !tbaa !13
  %44 = icmp ne i32 %43, 0
  br i1 %44, label %47, label %45

45:                                               ; preds = %42
  %46 = load ptr, ptr %4, align 8, !tbaa !48
  call void @print_error_with_state(ptr noundef %46, ptr noundef @.str.14)
  br label %56

47:                                               ; preds = %42, %39
  %48 = load ptr, ptr %4, align 8, !tbaa !48
  %49 = getelementptr inbounds nuw %struct.EncoderSession, ptr %48, i32 0, i32 10
  %50 = load i64, ptr %49, align 8, !tbaa !37
  %51 = icmp ugt i64 %50, 0
  br i1 %51, label %52, label %55

52:                                               ; preds = %47
  %53 = load ptr, ptr %4, align 8, !tbaa !48
  call void @print_stats(ptr noundef %53)
  %54 = load ptr, ptr @stderr, align 8, !tbaa !4
  call void (ptr, i32, ptr, ...) @flac__utils_printf(ptr noundef %54, i32 noundef 2, ptr noundef @.str.89)
  br label %55

55:                                               ; preds = %52, %47
  br label %56

56:                                               ; preds = %55, %45
  %57 = load i32, ptr %10, align 4, !tbaa !13
  %58 = icmp ne i32 %57, 0
  br i1 %58, label %59, label %61

59:                                               ; preds = %56
  %60 = load ptr, ptr %4, align 8, !tbaa !48
  call void @print_verify_error(ptr noundef %60)
  store i32 1, ptr %8, align 4, !tbaa !13
  br label %61

61:                                               ; preds = %59, %56
  %62 = load i32, ptr %8, align 4, !tbaa !13
  %63 = icmp eq i32 %62, 0
  br i1 %63, label %64, label %97

64:                                               ; preds = %61
  %65 = load ptr, ptr %4, align 8, !tbaa !48
  %66 = getelementptr inbounds nuw %struct.EncoderSession, ptr %65, i32 0, i32 16
  %67 = getelementptr inbounds [16 x i8], ptr %66, i64 0, i64 0
  %68 = call i32 @memcmp(ptr noundef %67, ptr noundef %9, i64 noundef 16) #15
  %69 = icmp ne i32 %68, 0
  br i1 %69, label %70, label %97

70:                                               ; preds = %64
  call void @llvm.lifetime.start.p0(i64 176, ptr %11) #14
  %71 = load ptr, ptr %4, align 8, !tbaa !48
  %72 = getelementptr inbounds nuw %struct.EncoderSession, ptr %71, i32 0, i32 6
  %73 = load ptr, ptr %72, align 8, !tbaa !60
  %74 = call i32 @FLAC__metadata_get_streaminfo(ptr noundef %73, ptr noundef %11)
  %75 = icmp ne i32 %74, 0
  br i1 %75, label %81, label %76

76:                                               ; preds = %70
  %77 = load ptr, ptr @stderr, align 8, !tbaa !4
  %78 = load ptr, ptr %4, align 8, !tbaa !48
  %79 = getelementptr inbounds nuw %struct.EncoderSession, ptr %78, i32 0, i32 4
  %80 = load ptr, ptr %79, align 8, !tbaa !24
  call void (ptr, i32, ptr, ...) @flac__utils_printf(ptr noundef %77, i32 noundef 1, ptr noundef @.str.90, ptr noundef %80)
  store i32 1, ptr %8, align 4, !tbaa !13
  br label %96

81:                                               ; preds = %70
  %82 = getelementptr inbounds nuw %struct.FLAC__StreamMetadata, ptr %11, i32 0, i32 3
  %83 = getelementptr inbounds nuw %struct.FLAC__StreamMetadata_StreamInfo, ptr %82, i32 0, i32 8
  %84 = getelementptr inbounds [16 x i8], ptr %83, i64 0, i64 0
  %85 = load ptr, ptr %4, align 8, !tbaa !48
  %86 = getelementptr inbounds nuw %struct.EncoderSession, ptr %85, i32 0, i32 16
  %87 = getelementptr inbounds [16 x i8], ptr %86, i64 0, i64 0
  %88 = call i32 @memcmp(ptr noundef %84, ptr noundef %87, i64 noundef 16) #15
  %89 = icmp ne i32 %88, 0
  br i1 %89, label %90, label %95

90:                                               ; preds = %81
  %91 = load ptr, ptr @stderr, align 8, !tbaa !4
  %92 = load ptr, ptr %4, align 8, !tbaa !48
  %93 = getelementptr inbounds nuw %struct.EncoderSession, ptr %92, i32 0, i32 4
  %94 = load ptr, ptr %93, align 8, !tbaa !24
  call void (ptr, i32, ptr, ...) @flac__utils_printf(ptr noundef %91, i32 noundef 1, ptr noundef @.str.91, ptr noundef %94)
  store i32 1, ptr %8, align 4, !tbaa !13
  br label %95

95:                                               ; preds = %90, %81
  br label %96

96:                                               ; preds = %95, %76
  call void @llvm.lifetime.end.p0(i64 176, ptr %11) #14
  br label %97

97:                                               ; preds = %96, %64, %61
  %98 = load i32, ptr %8, align 4, !tbaa !13
  %99 = icmp eq i32 %98, 0
  br i1 %99, label %100, label %129

100:                                              ; preds = %97
  %101 = load ptr, ptr %4, align 8, !tbaa !48
  %102 = getelementptr inbounds nuw %struct.EncoderSession, ptr %101, i32 0, i32 18
  %103 = load i32, ptr %102, align 8, !tbaa !65
  %104 = icmp eq i32 %103, 6
  br i1 %104, label %110, label %105

105:                                              ; preds = %100
  %106 = load ptr, ptr %4, align 8, !tbaa !48
  %107 = getelementptr inbounds nuw %struct.EncoderSession, ptr %106, i32 0, i32 18
  %108 = load i32, ptr %107, align 8, !tbaa !65
  %109 = icmp eq i32 %108, 7
  br i1 %109, label %110, label %129

110:                                              ; preds = %105, %100
  %111 = load ptr, ptr %4, align 8, !tbaa !48
  %112 = getelementptr inbounds nuw %struct.EncoderSession, ptr %111, i32 0, i32 19
  %113 = getelementptr inbounds nuw %struct.anon.6, ptr %112, i32 0, i32 0
  %114 = load ptr, ptr %113, align 8, !tbaa !17
  %115 = icmp ne ptr %114, null
  br i1 %115, label %116, label %129

116:                                              ; preds = %110
  %117 = load ptr, ptr %4, align 8, !tbaa !48
  %118 = getelementptr inbounds nuw %struct.EncoderSession, ptr %117, i32 0, i32 19
  %119 = getelementptr inbounds nuw %struct.anon.6, ptr %118, i32 0, i32 0
  %120 = load ptr, ptr %119, align 8, !tbaa !17
  %121 = call i32 @FLAC__stream_decoder_finish(ptr noundef %120)
  %122 = icmp ne i32 %121, 0
  br i1 %122, label %128, label %123

123:                                              ; preds = %116
  %124 = load ptr, ptr @stderr, align 8, !tbaa !4
  %125 = load ptr, ptr %4, align 8, !tbaa !48
  %126 = getelementptr inbounds nuw %struct.EncoderSession, ptr %125, i32 0, i32 4
  %127 = load ptr, ptr %126, align 8, !tbaa !24
  call void (ptr, i32, ptr, ...) @flac__utils_printf(ptr noundef %124, i32 noundef 1, ptr noundef @.str.92, ptr noundef %127)
  store i32 1, ptr %8, align 4, !tbaa !13
  br label %128

128:                                              ; preds = %123, %116
  br label %129

129:                                              ; preds = %128, %110, %105, %97
  %130 = load i32, ptr %8, align 4, !tbaa !13
  %131 = icmp eq i32 %130, 0
  br i1 %131, label %132, label %152

132:                                              ; preds = %129
  %133 = load ptr, ptr %5, align 8, !tbaa !48
  %134 = icmp ne ptr %133, null
  br i1 %134, label %135, label %152

135:                                              ; preds = %132
  call void @llvm.lifetime.start.p0(i64 8, ptr %12) #14
  %136 = load ptr, ptr %5, align 8, !tbaa !48
  %137 = load ptr, ptr %4, align 8, !tbaa !48
  %138 = getelementptr inbounds nuw %struct.EncoderSession, ptr %137, i32 0, i32 5
  %139 = load ptr, ptr %138, align 8, !tbaa !59
  %140 = load ptr, ptr %4, align 8, !tbaa !48
  %141 = getelementptr inbounds nuw %struct.EncoderSession, ptr %140, i32 0, i32 6
  %142 = load ptr, ptr %141, align 8, !tbaa !60
  %143 = call i32 @flac__foreign_metadata_write_to_flac(ptr noundef %136, ptr noundef %139, ptr noundef %142, ptr noundef %12)
  %144 = icmp ne i32 %143, 0
  br i1 %144, label %151, label %145

145:                                              ; preds = %135
  %146 = load ptr, ptr @stderr, align 8, !tbaa !4
  %147 = load ptr, ptr %4, align 8, !tbaa !48
  %148 = getelementptr inbounds nuw %struct.EncoderSession, ptr %147, i32 0, i32 4
  %149 = load ptr, ptr %148, align 8, !tbaa !24
  %150 = load ptr, ptr %12, align 8, !tbaa !11
  call void (ptr, i32, ptr, ...) @flac__utils_printf(ptr noundef %146, i32 noundef 1, ptr noundef @.str.93, ptr noundef %149, ptr noundef %150)
  store i32 1, ptr %8, align 4, !tbaa !13
  br label %151

151:                                              ; preds = %145, %135
  call void @llvm.lifetime.end.p0(i64 8, ptr %12) #14
  br label %152

152:                                              ; preds = %151, %132, %129
  %153 = load ptr, ptr %4, align 8, !tbaa !48
  %154 = getelementptr inbounds nuw %struct.EncoderSession, ptr %153, i32 0, i32 24
  %155 = load double, ptr %154, align 8, !tbaa !64
  %156 = fcmp oge double %155, 1.000000e+00
  br i1 %156, label %157, label %165

157:                                              ; preds = %152
  %158 = load i32, ptr %6, align 4, !tbaa !13
  %159 = icmp ne i32 %158, 0
  br i1 %159, label %160, label %165

160:                                              ; preds = %157
  %161 = load ptr, ptr @stderr, align 8, !tbaa !4
  %162 = load ptr, ptr %4, align 8, !tbaa !48
  %163 = getelementptr inbounds nuw %struct.EncoderSession, ptr %162, i32 0, i32 24
  %164 = load double, ptr %163, align 8, !tbaa !64
  call void (ptr, i32, ptr, ...) @flac__utils_printf(ptr noundef %161, i32 noundef 1, ptr noundef @.str.94, double noundef %164)
  store i32 1, ptr %8, align 4, !tbaa !13
  br label %165

165:                                              ; preds = %160, %157, %152
  %166 = load ptr, ptr %4, align 8, !tbaa !48
  call void @EncoderSession_destroy(ptr noundef %166)
  %167 = load i32, ptr %8, align 4, !tbaa !13
  call void @llvm.lifetime.end.p0(i64 4, ptr %10) #14
  call void @llvm.lifetime.end.p0(i64 16, ptr %9) #14
  call void @llvm.lifetime.end.p0(i64 4, ptr %8) #14
  call void @llvm.lifetime.end.p0(i64 4, ptr %7) #14
  ret i32 %167
}