; Function Attrs: nounwind sspstrong uwtable
define internal fastcc range(i32 0, 2) i32 @EncoderSession_finish_ok(ptr noundef nonnull captures(none) %0, ptr noundef %1, i32 noundef %2) unnamed_addr #0 {
  %4 = alloca [16 x i8], align 16
  %5 = alloca %struct.FLAC__StreamMetadata, align 8
  %6 = alloca ptr, align 8
  call void @llvm.lifetime.start.p0(i64 16, ptr nonnull %4) #20
  call void @llvm.memset.p0.i64(ptr noundef nonnull align 16 dereferenceable(16) %4, i8 0, i64 16, i1 false)
  %7 = getelementptr inbounds nuw i8, ptr %0, i64 8408
  %8 = load ptr, ptr %7, align 8, !tbaa !34
  %.not = icmp eq ptr %8, null
  br i1 %.not, label %.thread.thread, label %9

9:                                                ; preds = %3
  %10 = tail call i32 @FLAC__stream_encoder_get_state(ptr noundef nonnull %8) #20
  %11 = load ptr, ptr %7, align 8, !tbaa !34
  %12 = tail call i32 @FLAC__stream_encoder_finish(ptr noundef %11) #20
  %.not45 = icmp eq i32 %12, 0
  %13 = icmp eq i32 %10, 4
  br i1 %13, label %.thread, label %14

14:                                               ; preds = %9
  %15 = load ptr, ptr %7, align 8, !tbaa !34
  %16 = tail call i32 @FLAC__stream_encoder_get_state(ptr noundef %15) #20
  %17 = icmp eq i32 %16, 4
  %18 = xor i1 %.not45, true
  %or.cond = select i1 %18, i1 true, i1 %17
  br i1 %or.cond, label %.thread, label %19

19:                                               ; preds = %14
  tail call fastcc void @print_error_with_state(ptr noundef nonnull %0, ptr noundef nonnull @.str.14)
  br label %.critedge55.thread

.thread:                                          ; preds = %9, %14
  %.063 = phi i1 [ %17, %14 ], [ true, %9 ]
  %20 = getelementptr inbounds nuw i8, ptr %0, i64 56
  %21 = load i64, ptr %20, align 8, !tbaa !43
  %.not46 = icmp eq i64 %21, 0
  br i1 %.not46, label %26, label %24

.thread.thread:                                   ; preds = %3
  %22 = getelementptr inbounds nuw i8, ptr %0, i64 56
  %23 = load i64, ptr %22, align 8, !tbaa !43
  %.not4672 = icmp eq i64 %23, 0
  br i1 %.not4672, label %.thread81, label %24

24:                                               ; preds = %.thread.thread, %.thread
  %.03961.shrunk76 = phi i1 [ false, %.thread.thread ], [ %.not45, %.thread ]
  %.06373 = phi i1 [ false, %.thread.thread ], [ %.063, %.thread ]
  tail call fastcc void @print_stats(ptr noundef nonnull %0)
  %25 = load ptr, ptr @stderr, align 8, !tbaa !33
  tail call void (ptr, i32, ptr, ...) @flac__utils_printf(ptr noundef %25, i32 noundef 2, ptr noundef nonnull @.str.89) #20
  br i1 %.06373, label %27, label %28

26:                                               ; preds = %.thread
  br i1 %.063, label %27, label %28

27:                                               ; preds = %24, %26
  tail call fastcc void @print_verify_error(ptr noundef %0)
  br label %.critedge55.thread

28:                                               ; preds = %24, %26
  %.03961.shrunk75 = phi i1 [ %.03961.shrunk76, %24 ], [ %.not45, %26 ]
  br i1 %.03961.shrunk75, label %.critedge55.thread, label %.thread81

.thread81:                                        ; preds = %.thread.thread, %28
  %29 = getelementptr inbounds nuw i8, ptr %0, i64 104
  %bcmp = call i32 @bcmp(ptr noundef nonnull dereferenceable(16) %29, ptr noundef nonnull dereferenceable(16) %4, i64 16)
  %.not47 = icmp eq i32 %bcmp, 0
  br i1 %.not47, label %.critedge, label %30

30:                                               ; preds = %.thread81
  call void @llvm.lifetime.start.p0(i64 176, ptr nonnull %5) #20
  %31 = getelementptr inbounds nuw i8, ptr %0, i64 32
  %32 = load ptr, ptr %31, align 8, !tbaa !27
  %33 = call i32 @FLAC__metadata_get_streaminfo(ptr noundef %32, ptr noundef nonnull %5) #20
  %.not48 = icmp eq i32 %33, 0
  br i1 %.not48, label %.critedge55.critedge, label %34

34:                                               ; preds = %30
  %35 = getelementptr inbounds nuw i8, ptr %5, i64 56
  %bcmp49 = call i32 @bcmp(ptr noundef nonnull dereferenceable(16) %35, ptr noundef nonnull dereferenceable(16) %29, i64 16)
  %.not50 = icmp eq i32 %bcmp49, 0
  br i1 %.not50, label %36, label %.critedge55.critedge

36:                                               ; preds = %34
  call void @llvm.lifetime.end.p0(i64 176, ptr nonnull %5) #20
  br label %.critedge

.critedge:                                        ; preds = %.thread81, %36
  %37 = getelementptr inbounds nuw i8, ptr %0, i64 152
  %38 = load i32, ptr %37, align 8, !tbaa !29
  %39 = and i32 %38, -2
  %switch = icmp eq i32 %39, 6
  br i1 %switch, label %40, label %.critedge55

40:                                               ; preds = %.critedge
  %41 = getelementptr inbounds nuw i8, ptr %0, i64 160
  %42 = load ptr, ptr %41, align 8, !tbaa !30
  %.not51 = icmp eq ptr %42, null
  br i1 %.not51, label %.critedge55, label %43

43:                                               ; preds = %40
  %44 = call i32 @FLAC__stream_decoder_finish(ptr noundef nonnull %42) #20
  %.not52 = icmp eq i32 %44, 0
  br i1 %.not52, label %45, label %.critedge55

45:                                               ; preds = %43
  %46 = load ptr, ptr @stderr, align 8, !tbaa !33
  %47 = getelementptr inbounds nuw i8, ptr %0, i64 16
  %48 = load ptr, ptr %47, align 8, !tbaa !25
  call void (ptr, i32, ptr, ...) @flac__utils_printf(ptr noundef %46, i32 noundef 1, ptr noundef nonnull @.str.92, ptr noundef %48) #20
  br label %.critedge55.thread

.critedge55.critedge:                             ; preds = %34, %30
  %.str.90.sink = phi ptr [ @.str.90, %30 ], [ @.str.91, %34 ]
  %49 = load ptr, ptr @stderr, align 8, !tbaa !33
  %50 = getelementptr inbounds nuw i8, ptr %0, i64 16
  %51 = load ptr, ptr %50, align 8, !tbaa !25
  call void (ptr, i32, ptr, ...) @flac__utils_printf(ptr noundef %49, i32 noundef 1, ptr noundef nonnull %.str.90.sink, ptr noundef %51) #20
  call void @llvm.lifetime.end.p0(i64 176, ptr nonnull %5) #20
  br label %.critedge55.thread

.critedge55:                                      ; preds = %.critedge, %43, %40
  %.not69 = icmp eq ptr %1, null
  br i1 %.not69, label %.critedge55.thread, label %52

52:                                               ; preds = %.critedge55
  call void @llvm.lifetime.start.p0(i64 8, ptr nonnull %6) #20
  %53 = getelementptr inbounds nuw i8, ptr %0, i64 24
  %54 = load ptr, ptr %53, align 8, !tbaa !26
  %55 = getelementptr inbounds nuw i8, ptr %0, i64 32
  %56 = load ptr, ptr %55, align 8, !tbaa !27
  %57 = call i32 @flac__foreign_metadata_write_to_flac(ptr noundef nonnull %1, ptr noundef %54, ptr noundef %56, ptr noundef nonnull %6) #20
  %.not53 = icmp eq i32 %57, 0
  br i1 %.not53, label %58, label %63

58:                                               ; preds = %52
  %59 = load ptr, ptr @stderr, align 8, !tbaa !33
  %60 = getelementptr inbounds nuw i8, ptr %0, i64 16
  %61 = load ptr, ptr %60, align 8, !tbaa !25
  %62 = load ptr, ptr %6, align 8, !tbaa !42
  call void (ptr, i32, ptr, ...) @flac__utils_printf(ptr noundef %59, i32 noundef 1, ptr noundef nonnull @.str.93, ptr noundef %61, ptr noundef %62) #20
  br label %63

63:                                               ; preds = %58, %52
  %.6 = phi i32 [ 0, %52 ], [ 1, %58 ]
  call void @llvm.lifetime.end.p0(i64 8, ptr nonnull %6) #20
  br label %.critedge55.thread

.critedge55.thread:                               ; preds = %19, %27, %.critedge55.critedge, %28, %45, %63, %.critedge55
  %.5 = phi i32 [ %.6, %63 ], [ 0, %.critedge55 ], [ 1, %45 ], [ 1, %28 ], [ 1, %.critedge55.critedge ], [ 1, %27 ], [ 1, %19 ]
  %64 = getelementptr inbounds nuw i8, ptr %0, i64 8440
  %65 = load double, ptr %64, align 8, !tbaa !28
  %66 = fcmp oge double %65, 1.000000e+00
  %67 = icmp ne i32 %2, 0
  %or.cond5 = and i1 %67, %66
  br i1 %or.cond5, label %68, label %70

68:                                               ; preds = %.critedge55.thread
  %69 = load ptr, ptr @stderr, align 8, !tbaa !33
  call void (ptr, i32, ptr, ...) @flac__utils_printf(ptr noundef %69, i32 noundef 1, ptr noundef nonnull @.str.94, double noundef %65) #20
  br label %70

70:                                               ; preds = %68, %.critedge55.thread
  %.7 = phi i32 [ 1, %68 ], [ %.5, %.critedge55.thread ]
  call fastcc void @EncoderSession_destroy(ptr noundef %0)
  call void @llvm.lifetime.end.p0(i64 16, ptr nonnull %4) #20
  ret i32 %.7
}